target datalayout = "e-m:e-p270:32:32-p271:32:32-p272:64:64-i64:64-i128:128-f80:128-n8:16:32:64-S128"
target triple = "x86_64-pc-linux-gnu"

; Function Attrs: nounwind uwtable
define dso_local i32 @uv__tcp_keepalive(i32 noundef %0, i32 noundef %1, i32 noundef %2) #0 {
  %4 = alloca i32, align 4
  %5 = alloca i32, align 4
  %6 = alloca i32, align 4
  %7 = alloca i32, align 4
  %8 = alloca i32, align 4
  %9 = alloca i32, align 4
  %10 = alloca i32, align 4
  store i32 %0, ptr %5, align 4, !tbaa !11
  store i32 %1, ptr %6, align 4, !tbaa !11
  store i32 %2, ptr %7, align 4, !tbaa !11
  %11 = load i32, ptr %5, align 4, !tbaa !11
  %12 = call i32 @setsockopt(i32 noundef %11, i32 noundef 1, i32 noundef 9, ptr noundef %6, i32 noundef 4) #8
  %13 = icmp ne i32 %12, 0
  br i1 %13, label %14, label %18

14:                                               ; preds = %3
  %15 = call ptr @__errno_location() #9
  %16 = load i32, ptr %15, align 4, !tbaa !11
  %17 = sub nsw i32 0, %16
  store i32 %17, ptr %4, align 4
  br label %50

18:                                               ; preds = %3
  %19 = load i32, ptr %6, align 4, !tbaa !11
  %20 = icmp ne i32 %19, 0
  br i1 %20, label %21, label %49

21:                                               ; preds = %18
  call void @llvm.lifetime.start.p0(i64 4, ptr %8) #8
  store i32 1, ptr %8, align 4, !tbaa !11
  call void @llvm.lifetime.start.p0(i64 4, ptr %9) #8
  store i32 10, ptr %9, align 4, !tbaa !11
  %22 = load i32, ptr %5, align 4, !tbaa !11
  %23 = call i32 @setsockopt(i32 noundef %22, i32 noundef 6, i32 noundef 4, ptr noundef %7, i32 noundef 4) #8
  %24 = icmp ne i32 %23, 0
  br i1 %24, label %25, label %29

25:                                               ; preds = %21
  %26 = call ptr @__errno_location() #9
  %27 = load i32, ptr %26, align 4, !tbaa !11
  %28 = sub nsw i32 0, %27
  store i32 %28, ptr %4, align 4
  store i32 1, ptr %10, align 4
  br label %46

29:                                               ; preds = %21
  %30 = load i32, ptr %5, align 4, !tbaa !11
  %31 = call i32 @setsockopt(i32 noundef %30, i32 noundef 6, i32 noundef 5, ptr noundef %8, i32 noundef 4) #8
  %32 = icmp ne i32 %31, 0
  br i1 %32, label %33, label %37

33:                                               ; preds = %29
  %34 = call ptr @__errno_location() #9
  %35 = load i32, ptr %34, align 4, !tbaa !11
  %36 = sub nsw i32 0, %35
  store i32 %36, ptr %4, align 4
  store i32 1, ptr %10, align 4
  br label %46

37:                                               ; preds = %29
  %38 = load i32, ptr %5, align 4, !tbaa !11
  %39 = call i32 @setsockopt(i32 noundef %38, i32 noundef 6, i32 noundef 6, ptr noundef %9, i32 noundef 4) #8
  %40 = icmp ne i32 %39, 0
  br i1 %40, label %41, label %45

41:                                               ; preds = %37
  %42 = call ptr @__errno_location() #9
  %43 = load i32, ptr %42, align 4, !tbaa !11
  %44 = sub nsw i32 0, %43
  store i32 %44, ptr %4, align 4
  store i32 1, ptr %10, align 4
  br label %46

45:                                               ; preds = %37
  store i32 0, ptr %10, align 4
  br label %46

46:                                               ; preds = %45, %41, %33, %25
  call void @llvm.lifetime.end.p0(i64 4, ptr %9) #8
  call void @llvm.lifetime.end.p0(i64 4, ptr %8) #8
  %47 = load i32, ptr %10, align 4
  switch i32 %47, label %52 [
    i32 0, label %48
    i32 1, label %50
  ]

48:                                               ; preds = %46
  br label %49

49:                                               ; preds = %48, %18
  store i32 0, ptr %4, align 4
  br label %50

50:                                               ; preds = %49, %46, %14
  %51 = load i32, ptr %4, align 4
  ret i32 %51

52:                                               ; preds = %46
  unreachable
}