; Function Attrs: nounwind uwtable
define dso_local range(i32 -2147483647, -2147483648) i32 @uv__tcp_keepalive(i32 noundef %0, i32 noundef %1, i32 noundef %2) local_unnamed_addr #0 {
  %4 = alloca i32, align 4
  %5 = alloca i32, align 4
  %6 = alloca i32, align 4
  %7 = alloca i32, align 4
  store i32 %1, ptr %4, align 4, !tbaa !20
  store i32 %2, ptr %5, align 4, !tbaa !20
  %8 = call i32 @setsockopt(i32 noundef %0, i32 noundef 1, i32 noundef 9, ptr noundef nonnull %4, i32 noundef 4) #8
  %.not = icmp eq i32 %8, 0
  br i1 %.not, label %13, label %9

9:                                                ; preds = %3
  %10 = tail call ptr @__errno_location() #9
  %11 = load i32, ptr %10, align 4, !tbaa !20
  %12 = sub nsw i32 0, %11
  br label %23

13:                                               ; preds = %3
  %14 = load i32, ptr %4, align 4, !tbaa !20
  %.not7 = icmp eq i32 %14, 0
  br i1 %.not7, label %23, label %15

15:                                               ; preds = %13
  call void @llvm.lifetime.start.p0(i64 4, ptr nonnull %6) #8
  store i32 1, ptr %6, align 4, !tbaa !20
  call void @llvm.lifetime.start.p0(i64 4, ptr nonnull %7) #8
  store i32 10, ptr %7, align 4, !tbaa !20
  %16 = call i32 @setsockopt(i32 noundef %0, i32 noundef 6, i32 noundef 4, ptr noundef nonnull %5, i32 noundef 4) #8
  %.not8 = icmp eq i32 %16, 0
  br i1 %.not8, label %17, label %.thread

17:                                               ; preds = %15
  %18 = call i32 @setsockopt(i32 noundef %0, i32 noundef 6, i32 noundef 5, ptr noundef nonnull %6, i32 noundef 4) #8
  %.not9 = icmp eq i32 %18, 0
  br i1 %.not9, label %19, label %.thread

19:                                               ; preds = %17
  %20 = call i32 @setsockopt(i32 noundef %0, i32 noundef 6, i32 noundef 6, ptr noundef nonnull %7, i32 noundef 4) #8
  %.not10 = icmp eq i32 %20, 0
  br i1 %.not10, label %22, label %.thread

.thread:                                          ; preds = %19, %17, %15
  %21 = tail call ptr @__errno_location() #9
  %.pn = load i32, ptr %21, align 4, !tbaa !20
  %.1.ph = sub nsw i32 0, %.pn
  call void @llvm.lifetime.end.p0(i64 4, ptr nonnull %7) #8
  call void @llvm.lifetime.end.p0(i64 4, ptr nonnull %6) #8
  br label %23

22:                                               ; preds = %19
  call void @llvm.lifetime.end.p0(i64 4, ptr nonnull %7) #8
  call void @llvm.lifetime.end.p0(i64 4, ptr nonnull %6) #8
  br label %23

23:                                               ; preds = %13, %22, %.thread, %9
  %.06 = phi i32 [ %12, %9 ], [ %.1.ph, %.thread ], [ 0, %22 ], [ 0, %13 ]
  ret i32 %.06
}